target datalayout = "e-m:e-p270:32:32-p271:32:32-p272:64:64-i64:64-i128:128-f80:128-n8:16:32:64-S128"
target triple = "x86_64-pc-linux-gnu"

%struct.X509_VERIFY_PARAM_st = type { ptr, i64, i32, i64, i32, i32, i32, i32, ptr, ptr, i32, ptr, ptr, i64, ptr, i64 }

@.str = private unnamed_addr constant [34 x i8] c"../openssl/crypto/x509/x509_vpm.c\00", align 1

; Function Attrs: nounwind uwtable
define i32 @X509_VERIFY_PARAM_set1_name(ptr noundef %0, ptr noundef %1) #0 {
  %3 = alloca ptr, align 8
  %4 = alloca ptr, align 8
  store ptr %0, ptr %3, align 8, !tbaa !3
  store ptr %1, ptr %4, align 8, !tbaa !25
  %5 = load ptr, ptr %3, align 8, !tbaa !3
  %6 = getelementptr inbounds nuw %struct.X509_VERIFY_PARAM_st, ptr %5, i32 0, i32 0
  %7 = load ptr, ptr %6, align 8, !tbaa !39
  call void @CRYPTO_free(ptr noundef %7, ptr noundef @.str, i32 noundef 263)
  %8 = load ptr, ptr %4, align 8, !tbaa !25
  %9 = call noalias ptr @CRYPTO_strdup(ptr noundef %8, ptr noundef @.str, i32 noundef 264)
  %10 = load ptr, ptr %3, align 8, !tbaa !3
  %11 = getelementptr inbounds nuw %struct.X509_VERIFY_PARAM_st, ptr %10, i32 0, i32 0
  store ptr %9, ptr %11, align 8, !tbaa !39
  %12 = load ptr, ptr %3, align 8, !tbaa !3
  %13 = getelementptr inbounds nuw %struct.X509_VERIFY_PARAM_st, ptr %12, i32 0, i32 0
  %14 = load ptr, ptr %13, align 8, !tbaa !39
  %15 = icmp ne ptr %14, null
  %16 = zext i1 %15 to i32
  ret i32 %16
}